target datalayout = "e-m:e-p270:32:32-p271:32:32-p272:64:64-i64:64-i128:128-f80:128-n8:16:32:64-S128"
target triple = "x86_64-pc-linux-gnu"

%struct._lv_keyboard_t = type { %struct._lv_buttonmatrix_t, ptr, i32, i8 }
%struct._lv_buttonmatrix_t = type { %struct._lv_obj_t, ptr, ptr, ptr, i32, i32, i32, i8 }
%struct._lv_obj_t = type { ptr, ptr, ptr, ptr, ptr, %struct.lv_area_t, i32, i16, i16 }
%struct.lv_area_t = type { i32, i32, i32, i32 }

; Function Attrs: nounwind uwtable
define internal void @lv_keyboard_update_ctrl_map(ptr noundef %0) #0 {
  %2 = alloca ptr, align 8
  %3 = alloca ptr, align 8
  %4 = alloca ptr, align 8
  %5 = alloca ptr, align 8
  %6 = alloca i32, align 4
  store ptr %0, ptr %2, align 8, !tbaa !8
  call void @llvm.lifetime.start.p0(i64 8, ptr %3) #3
  %7 = load ptr, ptr %2, align 8, !tbaa !8
  store ptr %7, ptr %3, align 8, !tbaa !10
  %8 = load ptr, ptr %3, align 8, !tbaa !10
  %9 = getelementptr inbounds nuw %struct._lv_keyboard_t, ptr %8, i32 0, i32 3
  %10 = load i8, ptr %9, align 4
  %11 = and i8 %10, 1
  %12 = icmp ne i8 %11, 0
  br i1 %12, label %13, label %21

13:                                               ; preds = %1
  %14 = load ptr, ptr %2, align 8, !tbaa !8
  %15 = load ptr, ptr %3, align 8, !tbaa !10
  %16 = getelementptr inbounds nuw %struct._lv_keyboard_t, ptr %15, i32 0, i32 2
  %17 = load i32, ptr %16, align 8, !tbaa !22
  %18 = zext i32 %17 to i64
  %19 = getelementptr inbounds nuw [10 x ptr], ptr @kb_ctrl, i64 0, i64 %18
  %20 = load ptr, ptr %19, align 8, !tbaa !29
  call void @lv_buttonmatrix_set_ctrl_map(ptr noundef %14, ptr noundef %20)
  br label %62

21:                                               ; preds = %1
  call void @llvm.lifetime.start.p0(i64 8, ptr %4) #3
  %22 = load ptr, ptr %2, align 8, !tbaa !8
  store ptr %22, ptr %4, align 8, !tbaa !30
  call void @llvm.lifetime.start.p0(i64 8, ptr %5) #3
  %23 = load ptr, ptr %4, align 8, !tbaa !30
  %24 = getelementptr inbounds nuw %struct._lv_buttonmatrix_t, ptr %23, i32 0, i32 4
  %25 = load i32, ptr %24, align 8, !tbaa !32
  %26 = zext i32 %25 to i64
  %27 = mul i64 %26, 4
  %28 = call ptr @lv_malloc(i64 noundef %27)
  store ptr %28, ptr %5, align 8, !tbaa !29
  %29 = load ptr, ptr %5, align 8, !tbaa !29
  %30 = load ptr, ptr %3, align 8, !tbaa !10
  %31 = getelementptr inbounds nuw %struct._lv_keyboard_t, ptr %30, i32 0, i32 2
  %32 = load i32, ptr %31, align 8, !tbaa !22
  %33 = zext i32 %32 to i64
  %34 = getelementptr inbounds nuw [10 x ptr], ptr @kb_ctrl, i64 0, i64 %33
  %35 = load ptr, ptr %34, align 8, !tbaa !29
  %36 = load ptr, ptr %4, align 8, !tbaa !30
  %37 = getelementptr inbounds nuw %struct._lv_buttonmatrix_t, ptr %36, i32 0, i32 4
  %38 = load i32, ptr %37, align 8, !tbaa !32
  %39 = zext i32 %38 to i64
  %40 = mul i64 4, %39
  %41 = call ptr @lv_memcpy(ptr noundef %29, ptr noundef %35, i64 noundef %40)
  call void @llvm.lifetime.start.p0(i64 4, ptr %6) #3
  store i32 0, ptr %6, align 4, !tbaa !23
  br label %42

42:                                               ; preds = %55, %21
  %43 = load i32, ptr %6, align 4, !tbaa !23
  %44 = load ptr, ptr %4, align 8, !tbaa !30
  %45 = getelementptr inbounds nuw %struct._lv_buttonmatrix_t, ptr %44, i32 0, i32 4
  %46 = load i32, ptr %45, align 8, !tbaa !32
  %47 = icmp ult i32 %43, %46
  br i1 %47, label %48, label %58

48:                                               ; preds = %42
  %49 = load ptr, ptr %5, align 8, !tbaa !29
  %50 = load i32, ptr %6, align 4, !tbaa !23
  %51 = zext i32 %50 to i64
  %52 = getelementptr inbounds nuw i32, ptr %49, i64 %51
  %53 = load i32, ptr %52, align 4, !tbaa !23
  %54 = and i32 %53, -1025
  store i32 %54, ptr %52, align 4, !tbaa !23
  br label %55

55:                                               ; preds = %48
  %56 = load i32, ptr %6, align 4, !tbaa !23
  %57 = add i32 %56, 1
  store i32 %57, ptr %6, align 4, !tbaa !23
  br label %42, !llvm.loop !33

58:                                               ; preds = %42
  %59 = load ptr, ptr %2, align 8, !tbaa !8
  %60 = load ptr, ptr %5, align 8, !tbaa !29
  call void @lv_buttonmatrix_set_ctrl_map(ptr noundef %59, ptr noundef %60)
  %61 = load ptr, ptr %5, align 8, !tbaa !29
  call void @lv_free(ptr noundef %61)
  call void @llvm.lifetime.end.p0(i64 4, ptr %6) #3
  call void @llvm.lifetime.end.p0(i64 8, ptr %5) #3
  call void @llvm.lifetime.end.p0(i64 8, ptr %4) #3
  br label %62

62:                                               ; preds = %58, %13
  call void @llvm.lifetime.end.p0(i64 8, ptr %3) #3
  ret void
}