; Function Attrs: nounwind uwtable
define internal fastcc void @lv_keyboard_update_ctrl_map(ptr noundef %0) unnamed_addr #0 {
  %2 = getelementptr inbounds nuw i8, ptr %0, i64 116
  %3 = load i8, ptr %2, align 4
  %4 = and i8 %3, 1
  %.not = icmp eq i8 %4, 0
  br i1 %.not, label %11, label %5

5:                                                ; preds = %1
  %6 = getelementptr inbounds nuw i8, ptr %0, i64 112
  %7 = load i32, ptr %6, align 8, !tbaa !18
  %8 = zext i32 %7 to i64
  %9 = getelementptr inbounds nuw [10 x ptr], ptr @kb_ctrl, i64 0, i64 %8
  %10 = load ptr, ptr %9, align 8, !tbaa !20
  tail call void @lv_buttonmatrix_set_ctrl_map(ptr noundef nonnull %0, ptr noundef %10) #4
  br label %33

11:                                               ; preds = %1
  %12 = getelementptr inbounds nuw i8, ptr %0, i64 88
  %13 = load i32, ptr %12, align 8, !tbaa !21
  %14 = zext i32 %13 to i64
  %15 = shl nuw nsw i64 %14, 2
  %16 = tail call ptr @lv_malloc(i64 noundef %15) #4
  %17 = getelementptr inbounds nuw i8, ptr %0, i64 112
  %18 = load i32, ptr %17, align 8, !tbaa !18
  %19 = zext i32 %18 to i64
  %20 = getelementptr inbounds nuw [10 x ptr], ptr @kb_ctrl, i64 0, i64 %19
  %21 = load ptr, ptr %20, align 8, !tbaa !20
  %22 = load i32, ptr %12, align 8, !tbaa !21
  %23 = zext i32 %22 to i64
  %24 = shl nuw nsw i64 %23, 2
  %25 = tail call ptr @lv_memcpy(ptr noundef %16, ptr noundef %21, i64 noundef %24) #4
  %26 = load i32, ptr %12, align 8, !tbaa !21
  %.not17 = icmp eq i32 %26, 0
  br i1 %.not17, label %._crit_edge, label %.lr.ph

.lr.ph:                                           ; preds = %11, %.lr.ph
  %indvars.iv = phi i64 [ %indvars.iv.next, %.lr.ph ], [ 0, %11 ]
  %27 = getelementptr inbounds nuw i32, ptr %16, i64 %indvars.iv
  %28 = load i32, ptr %27, align 4, !tbaa !22
  %29 = and i32 %28, -1025
  store i32 %29, ptr %27, align 4, !tbaa !22
  %indvars.iv.next = add nuw nsw i64 %indvars.iv, 1
  %30 = load i32, ptr %12, align 8, !tbaa !21
  %31 = zext i32 %30 to i64
  %32 = icmp samesign ult i64 %indvars.iv.next, %31
  br i1 %32, label %.lr.ph, label %._crit_edge, !llvm.loop !23

._crit_edge:                                      ; preds = %.lr.ph, %11
  tail call void @lv_buttonmatrix_set_ctrl_map(ptr noundef nonnull %0, ptr noundef %16) #4
  tail call void @lv_free(ptr noundef %16) #4
  br label %33

33:                                               ; preds = %._crit_edge, %5
  ret void
}